# File generated by CompCert 3.8
# Command line: -S -O2 tailcall.c
	.text
	.align	16
	.globl g4
g4:
	.cfi_startproc
	subq	$8, %rsp
	.cfi_adjust_cfa_offset	8
	leaq	16(%rsp), %rax
	movq	%rax, 0(%rsp)
	leaq	0(%rsi,%rdi,1), %rax
	movq	%rsi, %rdi
	movq	%rax, %rsi
	addq	$8, %rsp
	jmp	f4
	.cfi_endproc
	.type	g4, @function
	.size	g4, . - g4
	.text
	.align	16
	.globl g3
g3:
	.cfi_startproc
	subq	$8, %rsp
	.cfi_adjust_cfa_offset	8
	leaq	16(%rsp), %rax
	movq	%rax, 0(%rsp)
	movq	%rdi, %rax
	movq	%rsi, %rdi
	leaq	0(%rdi,%rax,1), %rsi
	xorq	%rcx, %rcx
	addq	$8, %rsp
	jmp	f4
	.cfi_endproc
	.type	g3, @function
	.size	g3, . - g3
	.text
	.align	16
	.globl g6
g6:
	.cfi_startproc
	subq	$8, %rsp
	.cfi_adjust_cfa_offset	8
	leaq	16(%rsp), %rax
	movq	%rax, 0(%rsp)
	leaq	0(%rsi,%rdi,1), %rax
	movq	%rsi, %rdi
	movq	%rax, %rsi
	addq	$8, %rsp
	jmp	f4
	.cfi_endproc
	.type	g6, @function
	.size	g6, . - g6
	.text
	.align	16
	.globl h3
h3:
	.cfi_startproc
	subq	$88, %rsp
	.cfi_adjust_cfa_offset	88
	leaq	96(%rsp), %rax
	movq	%rax, 80(%rsp)
	movq	%rdi, 72(%rsp)
	movq	%rdx, 64(%rsp)
	movq	%rsi, 56(%rsp)
	movq	%rdi, 48(%rsp)
	movq	%rdx, 40(%rsp)
	movq	%rsi, 32(%rsp)
	movq	%rdi, 24(%rsp)
	movq	%rdx, 16(%rsp)
	movq	%rsi, 8(%rsp)
	movq	%rdi, 0(%rsp)
	movq	%rdx, %r9
	movq	%rsi, %r8
	movq	%rdi, %rcx
	call	f16
	addq	$88, %rsp
	ret
	.cfi_endproc
	.type	h3, @function
	.size	h3, . - h3
	.text
	.align	16
	.globl h16
h16:
	.cfi_startproc
	subq	$152, %rsp
	.cfi_adjust_cfa_offset	152
	leaq	160(%rsp), %rax
	movq	%rax, 80(%rsp)
	movq	%rbx, 88(%rsp)
	movq	%rbp, 96(%rsp)
	movq	%r12, 104(%rsp)
	movq	%r13, 112(%rsp)
	movq	%r14, 120(%rsp)
	movq	%r15, 128(%rsp)
	movq	72(%rax), %r13
	movq	64(%rax), %r12
	movq	56(%rax), %rax
	movq	%rax, 144(%rsp)
	movq	80(%rsp), %rax
	movq	48(%rax), %rbp
	movq	40(%rax), %rbx
	movq	32(%rax), %r11
	movq	24(%rax), %r10
	movq	%r8, %r15
	movq	80(%rsp), %rax
	movq	16(%rax), %r8
	movq	8(%rax), %r14
	movq	%rdi, 136(%rsp)
	movq	0(%rax), %rdi
	movq	%r12, 72(%rsp)
	movq	%r13, 64(%rsp)
	movq	144(%rsp), %rax
	movq	%rax, 56(%rsp)
	movq	%rbp, 48(%rsp)
	movq	%rbx, 40(%rsp)
	movq	%r11, 32(%rsp)
	movq	%r10, 24(%rsp)
	movq	%r8, 16(%rsp)
	movq	%r14, 8(%rsp)
	movq	%rdi, 0(%rsp)
	movq	%r15, %r8
	movq	%rdx, %rax
	movq	%rcx, %rdx
	movq	%rax, %rcx
	movq	%rsi, %rdi
	movq	136(%rsp), %rsi
	call	f16
	movq	88(%rsp), %rbx
	movq	96(%rsp), %rbp
	movq	104(%rsp), %r12
	movq	112(%rsp), %r13
	movq	120(%rsp), %r14
	movq	128(%rsp), %r15
	addq	$152, %rsp
	ret
	.cfi_endproc
	.type	h16, @function
	.size	h16, . - h16
	.text
	.align	16
	.globl j16
j16:
	.cfi_startproc
	subq	$56, %rsp
	.cfi_adjust_cfa_offset	56
	leaq	64(%rsp), %rax
	movq	%rax, 0(%rsp)
	movq	%rbx, 8(%rsp)
	movq	%rbp, 16(%rsp)
	movq	%r12, 24(%rsp)
	movq	%r13, 32(%rsp)
	movq	%r14, 40(%rsp)
	movq	%rcx, %r14
	movq	0(%rsp), %rax
	movq	48(%rax), %rcx
	movq	40(%rax), %r12
	movq	32(%rax), %rbp
	movq	24(%rax), %rbx
	movq	16(%rax), %r11
	movq	8(%rax), %r13
	movq	0(%rax), %r10
	leaq	0(%rdi,%rsi,1), %rax
	leaq	0(%rax,%rdx,1), %rax
	leaq	0(%rax,%r14,1), %rdi
	leaq	0(%r8,%r9,1), %rax
	leaq	0(%rax,%r10,1), %rsi
	leaq	0(%rsi,%r13,1), %rsi
	leaq	0(%r11,%rbx,1), %r9
	leaq	0(%r9,%rbp,1), %r8
	leaq	0(%r8,%r12,1), %rdx
	movq	8(%rsp), %rbx
	movq	16(%rsp), %rbp
	movq	24(%rsp), %r12
	movq	32(%rsp), %r13
	movq	40(%rsp), %r14
	addq	$56, %rsp
	jmp	f4
	.cfi_endproc
	.type	j16, @function
	.size	j16, . - j16
	.text
	.align	16
	.globl h6
h6:
	.cfi_startproc
	subq	$8, %rsp
	.cfi_adjust_cfa_offset	8
	leaq	16(%rsp), %rax
	movq	%rax, 0(%rsp)
	movq	%rcx, %r10
	movq	%rdx, %rcx
	movq	%r10, %rdx
	movq	%rsi, %r10
	movq	%rdi, %rsi
	movq	%r10, %rdi
	addq	$8, %rsp
	jmp	f6
	.cfi_endproc
	.type	h6, @function
	.size	h6, . - h6
	.text
	.align	16
	.globl h8
h8:
	.cfi_startproc
	subq	$24, %rsp
	.cfi_adjust_cfa_offset	24
	leaq	32(%rsp), %rax
	movq	%rax, 16(%rsp)
	movq	8(%rax), %r10
	movq	0(%rax), %r11
	movq	%rcx, %rax
	movq	%rdx, %rcx
	movq	%rax, %rdx
	movq	%rsi, %rax
	movq	%rdi, %rsi
	movq	%rax, %rdi
	movq	%r10, 8(%rsp)
	movq	%r11, 0(%rsp)
	call	f8
	addq	$24, %rsp
	ret
	.cfi_endproc
	.type	h8, @function
	.size	h8, . - h8
	.text
	.align	16
	.globl h12
h12:
	.cfi_startproc
	subq	$88, %rsp
	.cfi_adjust_cfa_offset	88
	leaq	96(%rsp), %rax
	movq	%rax, 48(%rsp)
	movq	%rbx, 56(%rsp)
	movq	%rbp, 64(%rsp)
	movq	%r12, 72(%rsp)
	movq	%r13, 80(%rsp)
	movq	40(%rax), %rbp
	movq	32(%rax), %r13
	movq	24(%rax), %r12
	movq	16(%rax), %rbx
	movq	8(%rax), %r10
	movq	0(%rax), %r11
	movq	%rcx, %rax
	movq	%rdx, %rcx
	movq	%rax, %rdx
	movq	%rsi, %rax
	movq	%rdi, %rsi
	movq	%rax, %rdi
	movq	%rbp, 40(%rsp)
	movq	%r13, 32(%rsp)
	movq	%r12, 24(%rsp)
	movq	%rbx, 16(%rsp)
	movq	%r10, 8(%rsp)
	movq	%r11, 0(%rsp)
	call	f12
	movq	56(%rsp), %rbx
	movq	64(%rsp), %rbp
	movq	72(%rsp), %r12
	movq	80(%rsp), %r13
	addq	$88, %rsp
	ret
	.cfi_endproc
	.type	h12, @function
	.size	h12, . - h12
